(lp1
(lp2
I482
aI0
aI0
aa(lp3
I345
aI0
aI0
aa(lp4
I297
aI0
aI0
aa(lp5
I315
aI0
aI0
aa(lp6
I398
aI0
aI0
aa(lp7
I356
aI0
aI0
aa(lp8
I523
aI0
aI0
aa(lp9
I372
aI0
aI0
aa(lp10
I651
aI0
aI0
aa(lp11
I503
aI0
aI0
aa.